; Function Attrs: mustprogress nofree norecurse nosync nounwind willreturn memory(readwrite, inaccessiblemem: none) uwtable
define dso_local range(i32 0, 2) i32 @lua_getmetatable(ptr noundef captures(none) %0, i32 noundef %1) local_unnamed_addr #6 {
  %3 = icmp sgt i32 %1, 0
  br i1 %3, label %4, label %12

4:                                                ; preds = %2
  %5 = getelementptr inbounds nuw i8, ptr %0, i64 24
  %6 = load ptr, ptr %5, align 8, !tbaa !21
  %7 = zext nneg i32 %1 to i64
  %8 = getelementptr %struct.lua_TValue, ptr %6, i64 %7
  %9 = getelementptr i8, ptr %8, i64 -16
  %10 = getelementptr inbounds nuw i8, ptr %0, i64 16
  %11 = load ptr, ptr %10, align 8, !tbaa !4
  %.not28.i = icmp ult ptr %9, %11
  %.luaO_nilobject_.i = select i1 %.not28.i, ptr %9, ptr @luaO_nilobject_
  br label %index2adr.exit

12:                                               ; preds = %2
  %13 = icmp sgt i32 %1, -10000
  br i1 %13, label %14, label %19

14:                                               ; preds = %12
  %15 = getelementptr inbounds nuw i8, ptr %0, i64 16
  %16 = load ptr, ptr %15, align 8, !tbaa !4
  %17 = sext i32 %1 to i64
  %18 = getelementptr inbounds %struct.lua_TValue, ptr %16, i64 %17
  br label %index2adr.exit

19:                                               ; preds = %12
  switch i32 %1, label %36 [
    i32 -10000, label %20
    i32 -10001, label %24
    i32 -10002, label %34
  ]

20:                                               ; preds = %19
  %21 = getelementptr inbounds nuw i8, ptr %0, i64 32
  %22 = load ptr, ptr %21, align 8, !tbaa !29
  %23 = getelementptr inbounds nuw i8, ptr %22, i64 160
  br label %index2adr.exit

24:                                               ; preds = %19
  %25 = getelementptr inbounds nuw i8, ptr %0, i64 40
  %26 = load ptr, ptr %25, align 8, !tbaa !23
  %27 = getelementptr inbounds nuw i8, ptr %26, i64 8
  %28 = load ptr, ptr %27, align 8, !tbaa !41
  %29 = load ptr, ptr %28, align 8, !tbaa !19
  %30 = getelementptr inbounds nuw i8, ptr %0, i64 136
  %31 = getelementptr inbounds nuw i8, ptr %29, i64 24
  %32 = load ptr, ptr %31, align 8, !tbaa !19
  store ptr %32, ptr %30, align 8, !tbaa !19
  %33 = getelementptr inbounds nuw i8, ptr %0, i64 144
  store i32 5, ptr %33, align 8, !tbaa !20
  br label %index2adr.exit

34:                                               ; preds = %19
  %35 = getelementptr inbounds nuw i8, ptr %0, i64 120
  br label %index2adr.exit

36:                                               ; preds = %19
  %37 = getelementptr inbounds nuw i8, ptr %0, i64 40
  %38 = load ptr, ptr %37, align 8, !tbaa !23
  %39 = getelementptr inbounds nuw i8, ptr %38, i64 8
  %40 = load ptr, ptr %39, align 8, !tbaa !41
  %41 = load ptr, ptr %40, align 8, !tbaa !19
  %42 = sub nuw nsw i32 -10002, %1
  %43 = getelementptr inbounds nuw i8, ptr %41, i64 11
  %44 = load i8, ptr %43, align 1, !tbaa !19
  %45 = zext i8 %44 to i32
  %.not.i = icmp samesign ugt i32 %42, %45
  %46 = getelementptr inbounds nuw i8, ptr %41, i64 40
  %47 = sub nuw nsw i32 -10003, %1
  %48 = zext nneg i32 %47 to i64
  %49 = getelementptr inbounds nuw [1 x %struct.lua_TValue], ptr %46, i64 0, i64 %48
  %50 = select i1 %.not.i, ptr @luaO_nilobject_, ptr %49
  br label %index2adr.exit

index2adr.exit:                                   ; preds = %4, %14, %20, %24, %34, %36
  %.1.i = phi ptr [ %.luaO_nilobject_.i, %4 ], [ %18, %14 ], [ %50, %36 ], [ %35, %34 ], [ %30, %24 ], [ %23, %20 ]
  %51 = getelementptr inbounds nuw i8, ptr %.1.i, i64 8
  %52 = load i32, ptr %51, align 8, !tbaa !20
  switch i32 %52, label %59 [
    i32 5, label %53
    i32 7, label %56
  ]

53:                                               ; preds = %index2adr.exit
  %54 = load ptr, ptr %.1.i, align 8, !tbaa !19
  %55 = getelementptr inbounds nuw i8, ptr %54, i64 24
  br label %65

56:                                               ; preds = %index2adr.exit
  %57 = load ptr, ptr %.1.i, align 8, !tbaa !19
  %58 = getelementptr inbounds nuw i8, ptr %57, i64 16
  br label %65

59:                                               ; preds = %index2adr.exit
  %60 = getelementptr inbounds nuw i8, ptr %0, i64 32
  %61 = load ptr, ptr %60, align 8, !tbaa !29
  %62 = getelementptr inbounds nuw i8, ptr %61, i64 224
  %63 = sext i32 %52 to i64
  %64 = getelementptr inbounds [9 x ptr], ptr %62, i64 0, i64 %63
  br label %65

65:                                               ; preds = %59, %56, %53
  %.0.in = phi ptr [ %64, %59 ], [ %58, %56 ], [ %55, %53 ]
  %.0 = load ptr, ptr %.0.in, align 8, !tbaa !19
  %66 = icmp eq ptr %.0, null
  br i1 %66, label %73, label %67

67:                                               ; preds = %65
  %68 = getelementptr inbounds nuw i8, ptr %0, i64 16
  %69 = load ptr, ptr %68, align 8, !tbaa !4
  store ptr %.0, ptr %69, align 8, !tbaa !19
  %70 = getelementptr inbounds nuw i8, ptr %69, i64 8
  store i32 5, ptr %70, align 8, !tbaa !20
  %71 = load ptr, ptr %68, align 8, !tbaa !4
  %72 = getelementptr inbounds nuw i8, ptr %71, i64 16
  store ptr %72, ptr %68, align 8, !tbaa !4
  br label %73

73:                                               ; preds = %65, %67
  %.013 = phi i32 [ 1, %67 ], [ 0, %65 ]
  ret i32 %.013
}